; Function Attrs: mustprogress nounwind uwtable
define void @_ZN6icu_756number31UnlocalizedNumberRangeFormatterC2EONS0_28NumberRangeFormatterSettingsIS1_EE(ptr noundef nonnull align 8 dereferenceable(1209) %this, ptr noundef nonnull align 8 dereferenceable(1208) %src) unnamed_addr #0 align 2 {
entry:
  %formatter1.i.i = getelementptr inbounds i8, ptr %this, i64 8
  %formatter12.i.i = getelementptr inbounds i8, ptr %src, i64 8
  tail call void @_ZN6icu_756number26UnlocalizedNumberFormatterC1EOS1_(ptr noundef nonnull align 8 dereferenceable(473) %formatter1.i.i, ptr noundef nonnull align 8 dereferenceable(473) %formatter12.i.i) #10
  %formatter2.i.i = getelementptr inbounds i8, ptr %this, i64 488
  %formatter23.i.i = getelementptr inbounds i8, ptr %src, i64 488
  tail call void @_ZN6icu_756number26UnlocalizedNumberFormatterC1EOS1_(ptr noundef nonnull align 8 dereferenceable(473) %formatter2.i.i, ptr noundef nonnull align 8 dereferenceable(473) %formatter23.i.i) #10
  %singleFormatter.i.i = getelementptr inbounds i8, ptr %this, i64 968
  %singleFormatter4.i.i = getelementptr inbounds i8, ptr %src, i64 968
  tail call void @llvm.memcpy.p0.p0.i64(ptr noundef nonnull align 8 dereferenceable(12) %singleFormatter.i.i, ptr noundef nonnull align 8 dereferenceable(12) %singleFormatter4.i.i, i64 12, i1 false)
  %locale.i.i = getelementptr inbounds i8, ptr %this, i64 984
  %locale5.i.i = getelementptr inbounds i8, ptr %src, i64 984
  tail call void @_ZN6icu_756LocaleC1EOS0_(ptr noundef nonnull align 8 dereferenceable(217) %locale.i.i, ptr noundef nonnull align 8 dereferenceable(217) %locale5.i.i) #10
  ret void
}